; Function Attrs: mustprogress nofree norecurse nosync nounwind willreturn memory(argmem: read) uwtable
define internal noundef zeroext i1 @_ZN2cv4text12_GLOBAL__N_115chainSortLengthERKNS1_16ChainedComponentES4_(ptr noundef nonnull readonly align 8 captures(none) dereferenceable(45) %0, ptr noundef nonnull readonly align 8 captures(none) dereferenceable(45) %1) #17 {
  %3 = getelementptr inbounds nuw i8, ptr %0, i64 8
  %4 = getelementptr inbounds nuw i8, ptr %0, i64 16
  %5 = load ptr, ptr %4, align 8, !tbaa !132
  %6 = load ptr, ptr %3, align 8, !tbaa !134
  %7 = ptrtoint ptr %5 to i64
  %8 = ptrtoint ptr %6 to i64
  %9 = sub i64 %7, %8
  %10 = getelementptr inbounds nuw i8, ptr %1, i64 8
  %11 = getelementptr inbounds nuw i8, ptr %1, i64 16
  %12 = load ptr, ptr %11, align 8, !tbaa !132
  %13 = load ptr, ptr %10, align 8, !tbaa !134
  %14 = ptrtoint ptr %12 to i64
  %15 = ptrtoint ptr %13 to i64
  %16 = sub i64 %14, %15
  %17 = icmp ult i64 %9, %16
  ret i1 %17
}